; Function Attrs: nounwind uwtable
define hidden void @zif_xmlwriter_write_element(ptr noundef %0, ptr nocapture noundef writeonly %1) #0 {
  %3 = alloca ptr, align 8
  %4 = alloca ptr, align 8
  %5 = alloca i64, align 8
  %6 = alloca i64, align 8
  %7 = alloca ptr, align 8
  store ptr null, ptr %4, align 8
  %8 = getelementptr inbounds i8, ptr %0, i64 32
  %9 = getelementptr inbounds i8, ptr %0, i64 44
  %10 = load i32, ptr %9, align 4
  %11 = getelementptr inbounds i8, ptr %0, i64 40
  %12 = load i8, ptr %11, align 8
  %13 = icmp eq i8 %12, 8
  %14 = select i1 %13, ptr %8, ptr null
  %15 = load ptr, ptr @xmlwriter_class_entry_ce, align 8
  %16 = call i32 (i32, ptr, ptr, ...) @zend_parse_method_parameters(i32 noundef %10, ptr noundef %14, ptr noundef nonnull @.str.11, ptr noundef nonnull %7, ptr noundef %15, ptr noundef nonnull %3, ptr noundef nonnull %5, ptr noundef nonnull %4, ptr noundef nonnull %6) #11
  %17 = icmp eq i32 %16, -1
  br i1 %17, label %18, label %21

18:                                               ; preds = %2
  %19 = load ptr, ptr getelementptr inbounds (%struct._zend_executor_globals, ptr @executor_globals, i64 0, i32 50), align 8
  %20 = icmp ne ptr %19, null
  call void @llvm.assume(i1 %20)
  br label %51

21:                                               ; preds = %2
  %22 = load ptr, ptr %7, align 8
  %23 = load ptr, ptr %22, align 8
  %24 = getelementptr inbounds i8, ptr %23, i64 -16
  %25 = load ptr, ptr %24, align 8
  %.not = icmp eq ptr %25, null
  br i1 %.not, label %26, label %29

26:                                               ; preds = %21
  call void (ptr, ptr, ...) @zend_throw_error(ptr noundef null, ptr noundef nonnull @.str.4) #11
  %27 = load ptr, ptr getelementptr inbounds (%struct._zend_executor_globals, ptr @executor_globals, i64 0, i32 50), align 8
  %28 = icmp ne ptr %27, null
  call void @llvm.assume(i1 %28)
  br label %51

29:                                               ; preds = %21
  %30 = load ptr, ptr %3, align 8
  %31 = call i32 @xmlValidateName(ptr noundef %30, i32 noundef 0) #11
  %.not14 = icmp eq i32 %31, 0
  br i1 %.not14, label %36, label %32

32:                                               ; preds = %29
  %33 = load ptr, ptr %3, align 8
  call void (i32, ptr, ...) @zend_argument_value_error(i32 noundef 2, ptr noundef nonnull @.str.7, ptr noundef nonnull @.str.10, ptr noundef %33) #11
  %34 = load ptr, ptr getelementptr inbounds (%struct._zend_executor_globals, ptr @executor_globals, i64 0, i32 50), align 8
  %35 = icmp ne ptr %34, null
  call void @llvm.assume(i1 %35)
  br label %51

36:                                               ; preds = %29
  %37 = load ptr, ptr %4, align 8
  %.not15 = icmp eq ptr %37, null
  %38 = load ptr, ptr %3, align 8
  br i1 %.not15, label %39, label %46

39:                                               ; preds = %36
  %40 = call i32 @xmlTextWriterStartElement(ptr noundef nonnull %25, ptr noundef %38) #11
  %41 = icmp eq i32 %40, -1
  br i1 %41, label %42, label %44

42:                                               ; preds = %39
  %43 = getelementptr inbounds i8, ptr %1, i64 8
  store i32 2, ptr %43, align 8
  br label %51

44:                                               ; preds = %39
  %45 = call i32 @xmlTextWriterEndElement(ptr noundef nonnull %25) #11
  br label %48

46:                                               ; preds = %36
  %47 = call i32 @xmlTextWriterWriteElement(ptr noundef nonnull %25, ptr noundef %38, ptr noundef nonnull %37) #11
  br label %48

48:                                               ; preds = %46, %44
  %.0 = phi i32 [ %47, %46 ], [ %45, %44 ]
  %.not16 = icmp eq i32 %.0, -1
  %49 = select i1 %.not16, i32 2, i32 3
  %50 = getelementptr inbounds i8, ptr %1, i64 8
  store i32 %49, ptr %50, align 8
  br label %51

51:                                               ; preds = %48, %42, %32, %26, %18
  ret void
}